target datalayout = "e-m:e-p270:32:32-p271:32:32-p272:64:64-i64:64-i128:128-f80:128-n8:16:32:64-S128"
target triple = "x86_64-pc-linux-gnu"

%struct._GtkTreeIter = type { i32, ptr, ptr, ptr }

@.str.5 = private unnamed_addr constant [1 x i8] zeroinitializer, align 1
@.str.70 = private unnamed_addr constant [3 x i8] c"%s\00", align 1
@.str.71 = private unnamed_addr constant [5 x i8] c" %s\0A\00", align 1
@.str.72 = private unnamed_addr constant [10 x i8] c"(private)\00", align 1
@.str.73 = private unnamed_addr constant [13 x i8] c"synonyms: %s\00", align 1
@.str.74 = private unnamed_addr constant [4 x i8] c" - \00", align 1

; Function Attrs: nounwind uwtable
define internal i32 @_row_tooltip_setup(ptr noundef %0, i32 noundef %1, i32 noundef %2, i32 noundef %3, ptr noundef %4, ptr noundef %5) #0 {
  %7 = alloca ptr, align 8
  %8 = alloca i32, align 4
  %9 = alloca i32, align 4
  %10 = alloca i32, align 4
  %11 = alloca ptr, align 8
  %12 = alloca ptr, align 8
  %13 = alloca i32, align 4
  %14 = alloca ptr, align 8
  %15 = alloca ptr, align 8
  %16 = alloca %struct._GtkTreeIter, align 8
  %17 = alloca ptr, align 8
  %18 = alloca i32, align 4
  %19 = alloca i32, align 4
  %20 = alloca ptr, align 8
  %21 = alloca ptr, align 8
  store ptr %0, ptr %7, align 8, !tbaa !108
  store i32 %1, ptr %8, align 4, !tbaa !31
  store i32 %2, ptr %9, align 4, !tbaa !31
  store i32 %3, ptr %10, align 4, !tbaa !31
  store ptr %4, ptr %11, align 8, !tbaa !136
  store ptr %5, ptr %12, align 8, !tbaa !6
  call void @llvm.lifetime.start.p0(i64 4, ptr %13) #11
  store i32 0, ptr %13, align 4, !tbaa !31
  call void @llvm.lifetime.start.p0(i64 8, ptr %14) #11
  store ptr null, ptr %14, align 8, !tbaa !138
  %22 = load ptr, ptr %7, align 8, !tbaa !108
  %23 = call i64 @gtk_tree_view_get_type() #12
  %24 = call ptr @g_type_check_instance_cast(ptr noundef %22, i64 noundef %23)
  %25 = load i32, ptr %8, align 4, !tbaa !31
  %26 = load i32, ptr %9, align 4, !tbaa !31
  %27 = call i32 @gtk_tree_view_get_path_at_pos(ptr noundef %24, i32 noundef %25, i32 noundef %26, ptr noundef %14, ptr noundef null, ptr noundef null, ptr noundef null)
  %28 = icmp ne i32 %27, 0
  br i1 %28, label %29, label %88

29:                                               ; preds = %6
  call void @llvm.lifetime.start.p0(i64 8, ptr %15) #11
  %30 = load ptr, ptr %7, align 8, !tbaa !108
  %31 = call i64 @gtk_tree_view_get_type() #12
  %32 = call ptr @g_type_check_instance_cast(ptr noundef %30, i64 noundef %31)
  %33 = call ptr @gtk_tree_view_get_model(ptr noundef %32)
  store ptr %33, ptr %15, align 8, !tbaa !36
  call void @llvm.lifetime.start.p0(i64 32, ptr %16) #11
  %34 = load ptr, ptr %15, align 8, !tbaa !36
  %35 = load ptr, ptr %14, align 8, !tbaa !138
  %36 = call i32 @gtk_tree_model_get_iter(ptr noundef %34, ptr noundef %16, ptr noundef %35)
  %37 = icmp ne i32 %36, 0
  br i1 %37, label %38, label %87

38:                                               ; preds = %29
  call void @llvm.lifetime.start.p0(i64 8, ptr %17) #11
  call void @llvm.lifetime.start.p0(i64 4, ptr %18) #11
  call void @llvm.lifetime.start.p0(i64 4, ptr %19) #11
  call void @llvm.lifetime.start.p0(i64 8, ptr %20) #11
  store ptr null, ptr %20, align 8, !tbaa !49
  %39 = load ptr, ptr %15, align 8, !tbaa !36
  call void (ptr, ptr, ...) @gtk_tree_model_get(ptr noundef %39, ptr noundef %16, i32 noundef 1, ptr noundef %18, i32 noundef 0, ptr noundef %17, i32 noundef 6, ptr noundef %19, i32 noundef 3, ptr noundef %20, i32 noundef -1)
  %40 = load i32, ptr %18, align 4, !tbaa !31
  %41 = icmp ne i32 %40, 0
  br i1 %41, label %42, label %84

42:                                               ; preds = %38
  %43 = load i32, ptr %19, align 4, !tbaa !31
  %44 = and i32 %43, 2
  %45 = icmp ne i32 %44, 0
  br i1 %45, label %55, label %46

46:                                               ; preds = %42
  %47 = load ptr, ptr %20, align 8, !tbaa !49
  %48 = icmp ne ptr %47, null
  br i1 %48, label %49, label %83

49:                                               ; preds = %46
  %50 = load ptr, ptr %20, align 8, !tbaa !49
  %51 = getelementptr inbounds i8, ptr %50, i64 0
  %52 = load i8, ptr %51, align 1, !tbaa !52
  %53 = sext i8 %52 to i32
  %54 = icmp ne i32 %53, 0
  br i1 %54, label %55, label %83

55:                                               ; preds = %49, %42
  call void @llvm.lifetime.start.p0(i64 8, ptr %21) #11
  %56 = call ptr @dcgettext(ptr noundef null, ptr noundef @.str.70, i32 noundef 5) #11
  %57 = load ptr, ptr %17, align 8, !tbaa !49
  %58 = call noalias ptr (ptr, ...) @g_strdup_printf(ptr noundef %56, ptr noundef %57)
  store ptr %58, ptr %21, align 8, !tbaa !49
  %59 = load i32, ptr %19, align 4, !tbaa !31
  %60 = and i32 %59, 2
  %61 = icmp ne i32 %60, 0
  br i1 %61, label %62, label %64

62:                                               ; preds = %55
  %63 = call ptr @dcgettext(ptr noundef null, ptr noundef @.str.72, i32 noundef 5) #11
  br label %65

64:                                               ; preds = %55
  br label %65

65:                                               ; preds = %64, %62
  %66 = phi ptr [ %63, %62 ], [ @.str.5, %64 ]
  call void (ptr, ptr, ...) @dt_util_str_cat(ptr noundef %21, ptr noundef @.str.71, ptr noundef %66)
  %67 = load ptr, ptr %20, align 8, !tbaa !49
  %68 = icmp ne ptr %67, null
  br i1 %68, label %69, label %77

69:                                               ; preds = %65
  %70 = load ptr, ptr %20, align 8, !tbaa !49
  %71 = getelementptr inbounds i8, ptr %70, i64 0
  %72 = load i8, ptr %71, align 1, !tbaa !52
  %73 = sext i8 %72 to i32
  %74 = icmp ne i32 %73, 0
  br i1 %74, label %75, label %77

75:                                               ; preds = %69
  %76 = load ptr, ptr %20, align 8, !tbaa !49
  br label %78

77:                                               ; preds = %69, %65
  br label %78

78:                                               ; preds = %77, %75
  %79 = phi ptr [ %76, %75 ], [ @.str.74, %77 ]
  call void (ptr, ptr, ...) @dt_util_str_cat(ptr noundef %21, ptr noundef @.str.73, ptr noundef %79)
  %80 = load ptr, ptr %11, align 8, !tbaa !136
  %81 = load ptr, ptr %21, align 8, !tbaa !49
  call void @gtk_tooltip_set_text(ptr noundef %80, ptr noundef %81)
  %82 = load ptr, ptr %21, align 8, !tbaa !49
  call void @g_free(ptr noundef %82)
  store i32 1, ptr %13, align 4, !tbaa !31
  call void @llvm.lifetime.end.p0(i64 8, ptr %21) #11
  br label %83

83:                                               ; preds = %78, %49, %46
  br label %84

84:                                               ; preds = %83, %38
  %85 = load ptr, ptr %20, align 8, !tbaa !49
  call void @g_free(ptr noundef %85)
  %86 = load ptr, ptr %17, align 8, !tbaa !49
  call void @g_free(ptr noundef %86)
  call void @llvm.lifetime.end.p0(i64 8, ptr %20) #11
  call void @llvm.lifetime.end.p0(i64 4, ptr %19) #11
  call void @llvm.lifetime.end.p0(i64 4, ptr %18) #11
  call void @llvm.lifetime.end.p0(i64 8, ptr %17) #11
  br label %87

87:                                               ; preds = %84, %29
  call void @llvm.lifetime.end.p0(i64 32, ptr %16) #11
  call void @llvm.lifetime.end.p0(i64 8, ptr %15) #11
  br label %88

88:                                               ; preds = %87, %6
  %89 = load ptr, ptr %14, align 8, !tbaa !138
  call void @gtk_tree_path_free(ptr noundef %89)
  %90 = load i32, ptr %13, align 4, !tbaa !31
  call void @llvm.lifetime.end.p0(i64 8, ptr %14) #11
  call void @llvm.lifetime.end.p0(i64 4, ptr %13) #11
  ret i32 %90
}