; Function Attrs: nounwind uwtable
define internal range(i32 0, 2) i32 @_row_tooltip_setup(ptr noundef %0, i32 noundef %1, i32 noundef %2, i32 %3, ptr noundef %4, ptr readnone captures(none) %5) #1 {
  %7 = alloca ptr, align 8
  %8 = alloca %struct._GtkTreeIter, align 8
  %9 = alloca ptr, align 8
  %10 = alloca i32, align 4
  %11 = alloca i32, align 4
  %12 = alloca ptr, align 8
  %13 = alloca ptr, align 8
  call void @llvm.lifetime.start.p0(i64 8, ptr nonnull %7) #16
  store ptr null, ptr %7, align 8, !tbaa !113
  %14 = tail call i64 @gtk_tree_view_get_type() #17
  %15 = tail call ptr @g_type_check_instance_cast(ptr noundef %0, i64 noundef %14) #16
  %16 = call i32 @gtk_tree_view_get_path_at_pos(ptr noundef %15, i32 noundef %1, i32 noundef %2, ptr noundef nonnull %7, ptr noundef null, ptr noundef null, ptr noundef null) #16
  %.not = icmp eq i32 %16, 0
  br i1 %.not, label %52, label %17

17:                                               ; preds = %6
  %18 = call ptr @g_type_check_instance_cast(ptr noundef %0, i64 noundef %14) #16
  %19 = call ptr @gtk_tree_view_get_model(ptr noundef %18) #16
  call void @llvm.lifetime.start.p0(i64 32, ptr nonnull %8) #16
  %20 = load ptr, ptr %7, align 8, !tbaa !113
  %21 = call i32 @gtk_tree_model_get_iter(ptr noundef %19, ptr noundef nonnull %8, ptr noundef %20) #16
  %.not9 = icmp eq i32 %21, 0
  br i1 %.not9, label %51, label %22

22:                                               ; preds = %17
  call void @llvm.lifetime.start.p0(i64 8, ptr nonnull %9) #16
  call void @llvm.lifetime.start.p0(i64 4, ptr nonnull %10) #16
  call void @llvm.lifetime.start.p0(i64 4, ptr nonnull %11) #16
  call void @llvm.lifetime.start.p0(i64 8, ptr nonnull %12) #16
  store ptr null, ptr %12, align 8, !tbaa !31
  call void (ptr, ptr, ...) @gtk_tree_model_get(ptr noundef %19, ptr noundef nonnull %8, i32 noundef 1, ptr noundef nonnull %10, i32 noundef 0, ptr noundef nonnull %9, i32 noundef 6, ptr noundef nonnull %11, i32 noundef 3, ptr noundef nonnull %12, i32 noundef -1) #16
  %23 = load i32, ptr %10, align 4, !tbaa !46
  %.not10 = icmp eq i32 %23, 0
  br i1 %.not10, label %48, label %24

24:                                               ; preds = %22
  %25 = load i32, ptr %11, align 4, !tbaa !46
  %26 = and i32 %25, 2
  %.not11 = icmp eq i32 %26, 0
  br i1 %.not11, label %27, label %31

27:                                               ; preds = %24
  %28 = load ptr, ptr %12, align 8, !tbaa !31
  %.not12 = icmp eq ptr %28, null
  br i1 %.not12, label %48, label %29

29:                                               ; preds = %27
  %30 = load i8, ptr %28, align 1, !tbaa !40
  %.not13 = icmp eq i8 %30, 0
  br i1 %.not13, label %48, label %31

31:                                               ; preds = %29, %24
  call void @llvm.lifetime.start.p0(i64 8, ptr nonnull %13) #16
  %32 = call ptr @dcgettext(ptr noundef null, ptr noundef nonnull @.str.70, i32 noundef 5) #16
  %33 = load ptr, ptr %9, align 8, !tbaa !31
  %34 = call noalias ptr (ptr, ...) @g_strdup_printf(ptr noundef %32, ptr noundef %33) #16
  store ptr %34, ptr %13, align 8, !tbaa !31
  %35 = load i32, ptr %11, align 4, !tbaa !46
  %36 = and i32 %35, 2
  %.not14 = icmp eq i32 %36, 0
  br i1 %.not14, label %39, label %37

37:                                               ; preds = %31
  %38 = call ptr @dcgettext(ptr noundef null, ptr noundef nonnull @.str.72, i32 noundef 5) #16
  br label %39

39:                                               ; preds = %31, %37
  %40 = phi ptr [ %38, %37 ], [ @.str.5, %31 ]
  call void (ptr, ptr, ...) @dt_util_str_cat(ptr noundef nonnull %13, ptr noundef nonnull @.str.71, ptr noundef %40) #16
  %41 = load ptr, ptr %12, align 8, !tbaa !31
  %.not15 = icmp eq ptr %41, null
  br i1 %.not15, label %44, label %42

42:                                               ; preds = %39
  %43 = load i8, ptr %41, align 1, !tbaa !40
  %.not16 = icmp eq i8 %43, 0
  %spec.select = select i1 %.not16, ptr @.str.74, ptr %41
  br label %44

44:                                               ; preds = %42, %39
  %45 = phi ptr [ @.str.74, %39 ], [ %spec.select, %42 ]
  call void (ptr, ptr, ...) @dt_util_str_cat(ptr noundef nonnull %13, ptr noundef nonnull @.str.73, ptr noundef %45) #16
  %46 = load ptr, ptr %13, align 8, !tbaa !31
  call void @gtk_tooltip_set_text(ptr noundef %4, ptr noundef %46) #16
  %47 = load ptr, ptr %13, align 8, !tbaa !31
  call void @g_free(ptr noundef %47) #16
  call void @llvm.lifetime.end.p0(i64 8, ptr nonnull %13) #16
  br label %48

48:                                               ; preds = %27, %29, %44, %22
  %.2 = phi i32 [ 1, %44 ], [ 0, %29 ], [ 0, %27 ], [ 0, %22 ]
  %49 = load ptr, ptr %12, align 8, !tbaa !31
  call void @g_free(ptr noundef %49) #16
  %50 = load ptr, ptr %9, align 8, !tbaa !31
  call void @g_free(ptr noundef %50) #16
  call void @llvm.lifetime.end.p0(i64 8, ptr nonnull %12) #16
  call void @llvm.lifetime.end.p0(i64 4, ptr nonnull %11) #16
  call void @llvm.lifetime.end.p0(i64 4, ptr nonnull %10) #16
  call void @llvm.lifetime.end.p0(i64 8, ptr nonnull %9) #16
  br label %51

51:                                               ; preds = %48, %17
  %.1 = phi i32 [ %.2, %48 ], [ 0, %17 ]
  call void @llvm.lifetime.end.p0(i64 32, ptr nonnull %8) #16
  br label %52

52:                                               ; preds = %51, %6
  %.0 = phi i32 [ %.1, %51 ], [ 0, %6 ]
  %53 = load ptr, ptr %7, align 8, !tbaa !113
  call void @gtk_tree_path_free(ptr noundef %53) #16
  call void @llvm.lifetime.end.p0(i64 8, ptr nonnull %7) #16
  ret i32 %.0
}